; Function Attrs: nounwind uwtable
define internal range(i32 -1, 2) i32 @checkClocksource(ptr noundef writeonly captures(none) %0) #0 {
  %2 = alloca [256 x i8], align 16
  %3 = alloca [256 x i8], align 16
  %4 = alloca %struct.timespec, align 8
  %5 = alloca %struct.rusage, align 8
  %6 = alloca %struct.rusage, align 8
  call void @llvm.lifetime.start.p0(i64 16, ptr nonnull %4) #8
  call void @llvm.lifetime.start.p0(i64 144, ptr nonnull %5) #8
  call void @llvm.lifetime.start.p0(i64 144, ptr nonnull %6) #8
  %7 = tail call i64 @sysconf(i32 noundef 2) #8
  %8 = call i32 @getrusage(i32 noundef 0, ptr noundef nonnull %5) #8
  %.not = icmp eq i32 %8, 0
  br i1 %.not, label %9, label %.thread

9:                                                ; preds = %1
  %10 = call i32 @clock_gettime(i32 noundef 1, ptr noundef nonnull %4) #8
  %11 = icmp slt i32 %10, 0
  br i1 %11, label %.thread, label %12

12:                                               ; preds = %9
  %13 = load i64, ptr %4, align 8, !tbaa !10
  %14 = getelementptr inbounds nuw i8, ptr %4, i64 8
  %15 = load i64, ptr %14, align 8, !tbaa !13
  %.neg16 = sdiv i64 %15, -1000
  %16 = udiv i64 5000000, %7
  br label %17

17:                                               ; preds = %20, %12
  %18 = call i32 @clock_gettime(i32 noundef 1, ptr noundef nonnull %4) #8
  %19 = icmp slt i32 %18, 0
  br i1 %19, label %.thread, label %20

20:                                               ; preds = %17
  %21 = load i64, ptr %4, align 8, !tbaa !10
  %22 = load i64, ptr %14, align 8, !tbaa !13
  %23 = sdiv i64 %22, 1000
  %reass.add = sub i64 %21, %13
  %reass.mul = mul i64 %reass.add, 1000000
  %.neg17 = add nsw i64 %23, %.neg16
  %24 = add i64 %.neg17, %reass.mul
  %.not18 = icmp ult i64 %24, %16
  br i1 %.not18, label %17, label %25

25:                                               ; preds = %20
  %26 = call i32 @getrusage(i32 noundef 0, ptr noundef nonnull %6) #8
  %.not19 = icmp eq i32 %26, 0
  br i1 %.not19, label %27, label %.thread

27:                                               ; preds = %25
  %28 = getelementptr inbounds nuw i8, ptr %6, i64 16
  %29 = load i64, ptr %28, align 8, !tbaa !14
  %30 = getelementptr inbounds nuw i8, ptr %6, i64 24
  %31 = load i64, ptr %30, align 8, !tbaa !17
  %32 = getelementptr inbounds nuw i8, ptr %5, i64 16
  %33 = load i64, ptr %32, align 8, !tbaa !14
  %34 = getelementptr inbounds nuw i8, ptr %5, i64 24
  %35 = load i64, ptr %34, align 8, !tbaa !17
  %reass.add42 = sub i64 %29, %33
  %reass.mul43 = mul i64 %reass.add42, 1000000
  %36 = sub i64 %31, %35
  %37 = add i64 %36, %reass.mul43
  %38 = load i64, ptr %6, align 8, !tbaa !18
  %39 = getelementptr inbounds nuw i8, ptr %6, i64 8
  %40 = load i64, ptr %39, align 8, !tbaa !19
  %41 = load i64, ptr %5, align 8, !tbaa !18
  %42 = getelementptr inbounds nuw i8, ptr %5, i64 8
  %43 = load i64, ptr %42, align 8, !tbaa !19
  %44 = mul nsw i64 %37, 10
  %reass.add39 = sub i64 %38, %41
  %reass.mul40 = mul i64 %reass.add39, 1000000
  %45 = add i64 %37, %40
  %46 = sub i64 %45, %43
  %47 = add i64 %46, %reass.mul40
  %48 = icmp sgt i64 %44, %47
  br i1 %48, label %49, label %.thread

49:                                               ; preds = %27
  call void @llvm.lifetime.start.p0(i64 256, ptr nonnull %3) #8
  %50 = call noalias ptr @fopen64(ptr noundef nonnull @.str.19, ptr noundef nonnull @.str.4)
  %.not.i = icmp eq ptr %50, null
  br i1 %.not.i, label %read_sysfs_line.exit, label %51

51:                                               ; preds = %49
  %52 = call ptr @fgets(ptr noundef nonnull %3, i32 noundef 256, ptr noundef nonnull %50)
  %.not9.i = icmp eq ptr %52, null
  %53 = call i32 @fclose(ptr noundef nonnull %50)
  br i1 %.not9.i, label %read_sysfs_line.exit, label %54

54:                                               ; preds = %51
  %55 = call ptr @sdsnew(ptr noundef nonnull %3) #8
  %56 = call ptr @sdstrim(ptr noundef %55, ptr noundef nonnull @.str.18) #8
  br label %read_sysfs_line.exit

read_sysfs_line.exit:                             ; preds = %49, %51, %54
  %.0.i = phi ptr [ %56, %54 ], [ null, %49 ], [ null, %51 ]
  call void @llvm.lifetime.end.p0(i64 256, ptr nonnull %3) #8
  call void @llvm.lifetime.start.p0(i64 256, ptr nonnull %2) #8
  %57 = call noalias ptr @fopen64(ptr noundef nonnull @.str, ptr noundef nonnull @.str.4)
  %.not.i24 = icmp eq ptr %57, null
  br i1 %.not.i24, label %read_sysfs_line.exit27, label %58

58:                                               ; preds = %read_sysfs_line.exit
  %59 = call ptr @fgets(ptr noundef nonnull %2, i32 noundef 256, ptr noundef nonnull %57)
  %.not9.i25 = icmp eq ptr %59, null
  %60 = call i32 @fclose(ptr noundef nonnull %57)
  br i1 %.not9.i25, label %read_sysfs_line.exit27, label %61

61:                                               ; preds = %58
  %62 = call ptr @sdsnew(ptr noundef nonnull %2) #8
  %63 = call ptr @sdstrim(ptr noundef %62, ptr noundef nonnull @.str.18) #8
  br label %read_sysfs_line.exit27

read_sysfs_line.exit27:                           ; preds = %read_sysfs_line.exit, %58, %61
  %.0.i26 = phi ptr [ %63, %61 ], [ null, %read_sysfs_line.exit ], [ null, %58 ]
  call void @llvm.lifetime.end.p0(i64 256, ptr nonnull %2) #8
  %64 = call ptr @sdsempty() #8
  %.not22 = icmp eq ptr %.0.i26, null
  %65 = select i1 %.not22, ptr @.str.21, ptr %.0.i26
  %.not23 = icmp eq ptr %.0.i, null
  %66 = select i1 %.not23, ptr @.str.21, ptr %.0.i
  %67 = call ptr (ptr, ptr, ...) @sdscatprintf(ptr noundef %64, ptr noundef nonnull @.str.20, ptr noundef nonnull %65, ptr noundef nonnull %66) #8
  store ptr %67, ptr %0, align 8, !tbaa !5
  call void @sdsfree(ptr noundef %.0.i) #8
  call void @sdsfree(ptr noundef %.0.i26) #8
  br label %.thread

.thread:                                          ; preds = %17, %read_sysfs_line.exit27, %27, %25, %9, %1
  %.0 = phi i32 [ 0, %1 ], [ 0, %9 ], [ 0, %25 ], [ -1, %read_sysfs_line.exit27 ], [ 1, %27 ], [ 0, %17 ]
  call void @llvm.lifetime.end.p0(i64 144, ptr nonnull %6) #8
  call void @llvm.lifetime.end.p0(i64 144, ptr nonnull %5) #8
  call void @llvm.lifetime.end.p0(i64 16, ptr nonnull %4) #8
  ret i32 %.0
}